target datalayout = "e-m:e-p270:32:32-p271:32:32-p272:64:64-i64:64-i128:128-f80:128-n8:16:32:64-S128"
target triple = "x86_64-unknown-linux-gnu"

%"class.google::protobuf::internal::InternalMetadata" = type { i64 }
%"class.google::protobuf::internal::HasBits" = type { [1 x i32] }
%"class.google::protobuf::internal::CachedSize" = type { i32 }
%"class.google::protobuf::internal::ExtensionSet" = type { ptr, i16, i16, %"union.google::protobuf::internal::ExtensionSet::AllocatedData" }
%"union.google::protobuf::internal::ExtensionSet::AllocatedData" = type { ptr }
%"class.google::protobuf::Message" = type { %"class.google::protobuf::MessageLite" }
%"class.google::protobuf::MessageLite" = type { ptr, %"class.google::protobuf::internal::InternalMetadata" }
%"class.google::protobuf::internal::RepeatedPtrFieldBase" = type { ptr, i32, i32, ptr }
%"class.google::protobuf::RepeatedPtrField.26" = type { %"class.google::protobuf::internal::RepeatedPtrFieldBase" }
%"class.google::protobuf::EnumValueOptions" = type { %"class.google::protobuf::Message", %union.anon.46 }
%union.anon.46 = type { %"struct.google::protobuf::EnumValueOptions::Impl_" }
%"struct.google::protobuf::EnumValueOptions::Impl_" = type <{ %"class.google::protobuf::internal::ExtensionSet", %"class.google::protobuf::internal::HasBits", %"class.google::protobuf::internal::CachedSize", %"class.google::protobuf::RepeatedPtrField.26", ptr, i8, i8, [6 x i8] }>

; Function Attrs: mustprogress nounwind uwtable
define linkonce_odr void @_ZSt4swapIcENSt9enable_ifIXsr6__and_ISt6__not_ISt15__is_tuple_likeIT_EESt21is_move_constructibleIS3_ESt18is_move_assignableIS3_EEE5valueEvE4typeERS3_SC_(ptr noundef nonnull align 1 dereferenceable(1) %__a, ptr noundef nonnull align 1 dereferenceable(1) %__b) #5 comdat {
entry:
  %__a.addr = alloca ptr, align 8
  %__b.addr = alloca ptr, align 8
  %__tmp = alloca i8, align 1
  store ptr %__a, ptr %__a.addr, align 8
  store ptr %__b, ptr %__b.addr, align 8
  %0 = load ptr, ptr %__a.addr, align 8
  %1 = load i8, ptr %0, align 1
  store i8 %1, ptr %__tmp, align 1
  %2 = load ptr, ptr %__b.addr, align 8
  %3 = load i8, ptr %2, align 1
  %4 = load ptr, ptr %__a.addr, align 8
  store i8 %3, ptr %4, align 1
  %5 = load i8, ptr %__tmp, align 1
  %6 = load ptr, ptr %__b.addr, align 8
  store i8 %5, ptr %6, align 1
  ret void
}

; Function Attrs: mustprogress nounwind uwtable
define linkonce_odr void @_ZSt9iter_swapIPcS0_EvT_T0_(ptr noundef %__a, ptr noundef %__b) #5 comdat {
entry:
  %__a.addr = alloca ptr, align 8
  %__b.addr = alloca ptr, align 8
  store ptr %__a, ptr %__a.addr, align 8
  store ptr %__b, ptr %__b.addr, align 8
  %0 = load ptr, ptr %__a.addr, align 8
  %1 = load ptr, ptr %__b.addr, align 8
  call void @_ZSt4swapIcENSt9enable_ifIXsr6__and_ISt6__not_ISt15__is_tuple_likeIT_EESt21is_move_constructibleIS3_ESt18is_move_assignableIS3_EEE5valueEvE4typeERS3_SC_(ptr noundef nonnull align 1 dereferenceable(1) %0, ptr noundef nonnull align 1 dereferenceable(1) %1) #3
  ret void
}

; Function Attrs: mustprogress uwtable
define linkonce_odr noundef ptr @_ZSt11swap_rangesIPcS0_ET0_T_S2_S1_(ptr noundef %__first1, ptr noundef %__last1, ptr noundef %__first2) #4 comdat {
entry:
  %__first1.addr = alloca ptr, align 8
  %__last1.addr = alloca ptr, align 8
  %__first2.addr = alloca ptr, align 8
  store ptr %__first1, ptr %__first1.addr, align 8
  store ptr %__last1, ptr %__last1.addr, align 8
  store ptr %__first2, ptr %__first2.addr, align 8
  br label %for.cond

for.cond:                                         ; preds = %for.inc, %entry
  %0 = load ptr, ptr %__first1.addr, align 8
  %1 = load ptr, ptr %__last1.addr, align 8
  %cmp = icmp ne ptr %0, %1
  br i1 %cmp, label %for.body, label %for.end

for.body:                                         ; preds = %for.cond
  %2 = load ptr, ptr %__first1.addr, align 8
  %3 = load ptr, ptr %__first2.addr, align 8
  call void @_ZSt9iter_swapIPcS0_EvT_T0_(ptr noundef %2, ptr noundef %3)
  br label %for.inc

for.inc:                                          ; preds = %for.body
  %4 = load ptr, ptr %__first1.addr, align 8
  %incdec.ptr = getelementptr inbounds i8, ptr %4, i32 1
  store ptr %incdec.ptr, ptr %__first1.addr, align 8
  %5 = load ptr, ptr %__first2.addr, align 8
  %incdec.ptr1 = getelementptr inbounds i8, ptr %5, i32 1
  store ptr %incdec.ptr1, ptr %__first2.addr, align 8
  br label %for.cond, !llvm.loop !278

for.end:                                          ; preds = %for.cond
  %6 = load ptr, ptr %__first2.addr, align 8
  ret ptr %6
}

; Function Attrs: mustprogress uwtable
define linkonce_odr hidden void @_ZN6google8protobuf8internal20RepeatedPtrFieldBase12InternalSwapEPS2_(ptr noundef nonnull align 8 dereferenceable(24) %this, ptr noalias noundef %rhs) #4 comdat align 2 {
entry:
  %this.addr = alloca ptr, align 8
  %rhs.addr = alloca ptr, align 8
  store ptr %this, ptr %this.addr, align 8
  store ptr %rhs, ptr %rhs.addr, align 8
  %this1 = load ptr, ptr %this.addr, align 8
  %0 = load ptr, ptr %rhs.addr, align 8
  call void @_ZN6google8protobuf8internal7memswapILm16EEEvPcS3_(ptr noundef %this1, ptr noundef %0)
  ret void
}

; Function Attrs: mustprogress uwtable
define linkonce_odr hidden void @_ZN6google8protobuf8internal7memswapILm10EEEvPcS3_(ptr noalias noundef %a, ptr noalias noundef %b) #4 comdat {
entry:
  %a.addr = alloca ptr, align 8
  %b.addr = alloca ptr, align 8
  store ptr %a, ptr %a.addr, align 8
  store ptr %b, ptr %b.addr, align 8
  %0 = load ptr, ptr %a.addr, align 8
  %1 = load ptr, ptr %a.addr, align 8
  %add.ptr = getelementptr inbounds i8, ptr %1, i64 10
  %2 = load ptr, ptr %b.addr, align 8
  %call = call noundef ptr @_ZSt11swap_rangesIPcS0_ET0_T_S2_S1_(ptr noundef %0, ptr noundef %add.ptr, ptr noundef %2)
  ret void
}

; Function Attrs: mustprogress uwtable
define linkonce_odr hidden void @_ZN6google8protobuf16RepeatedPtrFieldINS0_19UninterpretedOptionEE12InternalSwapEPS3_(ptr noundef nonnull align 8 dereferenceable(24) %this, ptr noalias noundef %other) #4 comdat align 2 {
entry:
  %this.addr = alloca ptr, align 8
  %other.addr = alloca ptr, align 8
  store ptr %this, ptr %this.addr, align 8
  store ptr %other, ptr %other.addr, align 8
  %this1 = load ptr, ptr %this.addr, align 8
  %0 = load ptr, ptr %other.addr, align 8
  call void @_ZN6google8protobuf8internal20RepeatedPtrFieldBase12InternalSwapEPS2_(ptr noundef nonnull align 8 dereferenceable(24) %this1, ptr noundef %0)
  ret void
}

; Function Attrs: mustprogress nounwind uwtable
define linkonce_odr void @_ZSt4swapIjENSt9enable_ifIXsr6__and_ISt6__not_ISt15__is_tuple_likeIT_EESt21is_move_constructibleIS3_ESt18is_move_assignableIS3_EEE5valueEvE4typeERS3_SC_(ptr noundef nonnull align 4 dereferenceable(4) %__a, ptr noundef nonnull align 4 dereferenceable(4) %__b) #5 comdat {
entry:
  %__a.addr = alloca ptr, align 8
  %__b.addr = alloca ptr, align 8
  %__tmp = alloca i32, align 4
  store ptr %__a, ptr %__a.addr, align 8
  store ptr %__b, ptr %__b.addr, align 8
  %0 = load ptr, ptr %__a.addr, align 8
  %1 = load i32, ptr %0, align 4
  store i32 %1, ptr %__tmp, align 4
  %2 = load ptr, ptr %__b.addr, align 8
  %3 = load i32, ptr %2, align 4
  %4 = load ptr, ptr %__a.addr, align 8
  store i32 %3, ptr %4, align 4
  %5 = load i32, ptr %__tmp, align 4
  %6 = load ptr, ptr %__b.addr, align 8
  store i32 %5, ptr %6, align 4
  ret void
}

; Function Attrs: mustprogress nounwind uwtable
define linkonce_odr void @_ZSt4swapIlENSt9enable_ifIXsr6__and_ISt6__not_ISt15__is_tuple_likeIT_EESt21is_move_constructibleIS3_ESt18is_move_assignableIS3_EEE5valueEvE4typeERS3_SC_(ptr noundef nonnull align 8 dereferenceable(8) %__a, ptr noundef nonnull align 8 dereferenceable(8) %__b) #5 comdat {
entry:
  %__a.addr = alloca ptr, align 8
  %__b.addr = alloca ptr, align 8
  %__tmp = alloca i64, align 8
  store ptr %__a, ptr %__a.addr, align 8
  store ptr %__b, ptr %__b.addr, align 8
  %0 = load ptr, ptr %__a.addr, align 8
  %1 = load i64, ptr %0, align 8
  store i64 %1, ptr %__tmp, align 8
  %2 = load ptr, ptr %__b.addr, align 8
  %3 = load i64, ptr %2, align 8
  %4 = load ptr, ptr %__a.addr, align 8
  store i64 %3, ptr %4, align 8
  %5 = load i64, ptr %__tmp, align 8
  %6 = load ptr, ptr %__b.addr, align 8
  store i64 %5, ptr %6, align 8
  ret void
}

; Function Attrs: mustprogress uwtable
define void @_ZN6google8protobuf16EnumValueOptions12InternalSwapEPS1_(ptr noundef nonnull align 8 dereferenceable(88) %this, ptr noalias noundef %other) #4 align 2 {
entry:
  %this.addr.i10 = alloca ptr, align 8
  %index.addr.i11 = alloca i32, align 4
  %this.addr.i8 = alloca ptr, align 8
  %index.addr.i = alloca i32, align 4
  %this.addr.i = alloca ptr, align 8
  %other.addr.i = alloca ptr, align 8
  %this.addr = alloca ptr, align 8
  %other.addr = alloca ptr, align 8
  store ptr %this, ptr %this.addr, align 8
  store ptr %other, ptr %other.addr, align 8
  %this1 = load ptr, ptr %this.addr, align 8
  %0 = getelementptr inbounds %"class.google::protobuf::EnumValueOptions", ptr %this1, i32 0, i32 1
  %_extensions_ = getelementptr inbounds %"struct.google::protobuf::EnumValueOptions::Impl_", ptr %0, i32 0, i32 0
  %1 = load ptr, ptr %other.addr, align 8
  %2 = getelementptr inbounds %"class.google::protobuf::EnumValueOptions", ptr %1, i32 0, i32 1
  %_extensions_2 = getelementptr inbounds %"struct.google::protobuf::EnumValueOptions::Impl_", ptr %2, i32 0, i32 0
  call void @_ZN6google8protobuf8internal12ExtensionSet12InternalSwapEPS2_(ptr noundef nonnull align 8 dereferenceable(24) %_extensions_, ptr noundef %_extensions_2)
  %_internal_metadata_ = getelementptr inbounds %"class.google::protobuf::MessageLite", ptr %this1, i32 0, i32 1
  %3 = load ptr, ptr %other.addr, align 8
  %_internal_metadata_3 = getelementptr inbounds %"class.google::protobuf::MessageLite", ptr %3, i32 0, i32 1
  call void @llvm.experimental.noalias.scope.decl(metadata !145)
  store ptr %_internal_metadata_, ptr %this.addr.i, align 8, !noalias !145
  store ptr %_internal_metadata_3, ptr %other.addr.i, align 8, !noalias !145
  %this1.i = load ptr, ptr %this.addr.i, align 8, !noalias !145
  %4 = load ptr, ptr %other.addr.i, align 8, !noalias !145
  call void @_ZSt4swapIlENSt9enable_ifIXsr6__and_ISt6__not_ISt15__is_tuple_likeIT_EESt21is_move_constructibleIS3_ESt18is_move_assignableIS3_EEE5valueEvE4typeERS3_SC_(ptr noundef nonnull align 8 dereferenceable(8) %this1.i, ptr noundef nonnull align 8 dereferenceable(8) %4) #3
  %5 = getelementptr inbounds %"class.google::protobuf::EnumValueOptions", ptr %this1, i32 0, i32 1
  %_has_bits_ = getelementptr inbounds %"struct.google::protobuf::EnumValueOptions::Impl_", ptr %5, i32 0, i32 1
  store ptr %_has_bits_, ptr %this.addr.i10, align 8
  store i32 0, ptr %index.addr.i11, align 4
  %this1.i12 = load ptr, ptr %this.addr.i10, align 8
  %6 = load i32, ptr %index.addr.i11, align 4
  %idxprom.i13 = sext i32 %6 to i64
  %arrayidx.i14 = getelementptr inbounds [1 x i32], ptr %this1.i12, i64 0, i64 %idxprom.i13
  %7 = load ptr, ptr %other.addr, align 8
  %8 = getelementptr inbounds %"class.google::protobuf::EnumValueOptions", ptr %7, i32 0, i32 1
  %_has_bits_4 = getelementptr inbounds %"struct.google::protobuf::EnumValueOptions::Impl_", ptr %8, i32 0, i32 1
  store ptr %_has_bits_4, ptr %this.addr.i8, align 8
  store i32 0, ptr %index.addr.i, align 4
  %this1.i9 = load ptr, ptr %this.addr.i8, align 8
  %9 = load i32, ptr %index.addr.i, align 4
  %idxprom.i = sext i32 %9 to i64
  %arrayidx.i = getelementptr inbounds [1 x i32], ptr %this1.i9, i64 0, i64 %idxprom.i
  call void @_ZSt4swapIjENSt9enable_ifIXsr6__and_ISt6__not_ISt15__is_tuple_likeIT_EESt21is_move_constructibleIS3_ESt18is_move_assignableIS3_EEE5valueEvE4typeERS3_SC_(ptr noundef nonnull align 4 dereferenceable(4) %arrayidx.i14, ptr noundef nonnull align 4 dereferenceable(4) %arrayidx.i) #3
  %10 = getelementptr inbounds %"class.google::protobuf::EnumValueOptions", ptr %this1, i32 0, i32 1
  %uninterpreted_option_ = getelementptr inbounds %"struct.google::protobuf::EnumValueOptions::Impl_", ptr %10, i32 0, i32 3
  %11 = load ptr, ptr %other.addr, align 8
  %12 = getelementptr inbounds %"class.google::protobuf::EnumValueOptions", ptr %11, i32 0, i32 1
  %uninterpreted_option_6 = getelementptr inbounds %"struct.google::protobuf::EnumValueOptions::Impl_", ptr %12, i32 0, i32 3
  call void @_ZN6google8protobuf16RepeatedPtrFieldINS0_19UninterpretedOptionEE12InternalSwapEPS3_(ptr noundef nonnull align 8 dereferenceable(24) %uninterpreted_option_, ptr noundef %uninterpreted_option_6)
  %13 = getelementptr inbounds %"class.google::protobuf::EnumValueOptions", ptr %this1, i32 0, i32 1
  %features_ = getelementptr inbounds %"struct.google::protobuf::EnumValueOptions::Impl_", ptr %13, i32 0, i32 4
  %14 = load ptr, ptr %other.addr, align 8
  %15 = getelementptr inbounds %"class.google::protobuf::EnumValueOptions", ptr %14, i32 0, i32 1
  %features_7 = getelementptr inbounds %"struct.google::protobuf::EnumValueOptions::Impl_", ptr %15, i32 0, i32 4
  call void @_ZN6google8protobuf8internal7memswapILm10EEEvPcS3_(ptr noundef %features_, ptr noundef %features_7)
  ret void
}